(dp1
I0
L3524230004508303821981664514907967101275097140462704352119763766340426399744L
sI1
L18896917277509450085813336327685464993537807931907169881227189311272489320448L
sI2
L17763355858938623880068948313769155421148074871191760031931736844475383676928L
sI3
L23354940172754078062885506068899257554233224312305155194788692632742087622656L
sI4
L183082732877732171942259086067372316543609146713599953785481208451888578560L
sI5
L17562747720215678801204869887526522094730078375927165704284833941127430144L
sI6
L24478623499390039561234787266160395217467596955150033600058524106835516981248L
sI7
L13209146402190764398038544848805055429546535550653794655616656775970623062016L
sI8
L26613576498887248240406190430392980645785628718302256712801772569628568977408L
sI9
L19013970263476069751535618463162010337455117221893212285868509836505516081152L
s.