(dp1
I0
L23974860182382391405786513641463004216633108558147561686148405263296299532288L
sI1
L2074475467318416508307237882136733306211353473214277248497247015960020254720L
sI2
L11707038203626129574055457972391144460576556254237243499737020077099708317696L
sI3
L20989480969991580260977335390069734290243236770133126146345545735398836142080L
sI4
L25144276620940484749791934762395604961799592372785660111469987739361592999936L
sI5
L27075392234832174028310920059420970533170718397800865267150589721590422831104L
sI6
L5336816342295990456119989223482979467592747072127317044862377233680521232384L
sI7
L7558514288177483145588305782353701011972992711873936300211538471442653904896L
sI8
L22604545624184801915596135651021131576270479876684434670702694259947810586624L
sI9
L27287122514302524463332487924379441398655631735488288911118916434671733571584L
s.