(dp1
I0
L481205019223461430729439313660482246080529315237360645665456293875819756435L
sI1
L13328008411709215132357585553975083796771795498886135730860724798105319804392L
sI2
L26143987547351812999169995798396868195838937500441774222526311678787591538296L
sI3
L24855915100588185796580501622184071467476910270939577242661045979094588211986L
sI4
L24517800584406666641602710230647183012685138440555032414865888645533761826551L
sI5
L23116803110307958254943130200208775547692680910078783636183973442501449940975L
sI6
L20592215459532402492474641815246579407468955695177012344810935117134332537116L
sI7
L15670743226715807360540099213363147377310667846222282317916947376151817211704L
sI8
L9644454265334793301407465211401325088824436913432781235030199377577421319243L
sI9
L18889506109477581486359137987935005735329956696406714937004499875444721818985L
s.