(dp1
I0
L2779811955296547643138521435970339174752935450932688971433207125049111731745L
sI1
L4594308858445880100506306811933243775764050729117043299768371886149205869791L
sI2
L19411631437509491730107594896427041747228553803767996260567319400962074938406L
sI3
L27215303598253481120639262321069135087477693132405006530175296803106679429621L
sI4
L9629700560765518748253446521750501170310160693304359683088915040103036833608L
sI5
L894946113130938913306226779057128764095998089811225681383105643580574543253L
sI6
L17187674111315398933406049925840908686402749771052493929384794913475510262879L
sI7
L10356000897005762595570894090211705761300641314365346151705192837526313502932L
sI8
L12369344961855441011202594949596534161556755753456108138140745794627198568898L
sI9
L24697794173695381342586441586680624279309300595286838921693254465899178094014L
s.